target datalayout = "e-m:e-p270:32:32-p271:32:32-p272:64:64-i64:64-i128:128-f80:128-n8:16:32:64-S128"
target triple = "x86_64-unknown-linux-gnu"

%struct.hmac_ctx_st = type { ptr, %struct.env_md_ctx_st, %struct.env_md_ctx_st, %struct.env_md_ctx_st }
%struct.env_md_ctx_st = type { ptr, ptr, ptr, ptr }

@HMAC.static_out_buffer = internal global [64 x i8] zeroinitializer, align 16

; Function Attrs: nounwind uwtable
define hidden void @HMAC_CTX_cleanup(ptr noundef %ctx) #0 {
entry:
  %ctx.addr = alloca ptr, align 8
  store ptr %ctx, ptr %ctx.addr, align 8
  %0 = load ptr, ptr %ctx.addr, align 8
  %i_ctx = getelementptr inbounds %struct.hmac_ctx_st, ptr %0, i32 0, i32 2
  %call = call i32 @EVP_MD_CTX_cleanup(ptr noundef %i_ctx)
  %1 = load ptr, ptr %ctx.addr, align 8
  %o_ctx = getelementptr inbounds %struct.hmac_ctx_st, ptr %1, i32 0, i32 3
  %call1 = call i32 @EVP_MD_CTX_cleanup(ptr noundef %o_ctx)
  %2 = load ptr, ptr %ctx.addr, align 8
  %md_ctx = getelementptr inbounds %struct.hmac_ctx_st, ptr %2, i32 0, i32 1
  %call2 = call i32 @EVP_MD_CTX_cleanup(ptr noundef %md_ctx)
  %3 = load ptr, ptr %ctx.addr, align 8
  call void @OPENSSL_cleanse(ptr noundef %3, i64 noundef 104)
  ret void
}

; Function Attrs: nounwind uwtable
define hidden i32 @HMAC_Final(ptr noundef %ctx, ptr noundef %out, ptr noundef %out_len) #0 {
entry:
  %retval = alloca i32, align 4
  %ctx.addr = alloca ptr, align 8
  %out.addr = alloca ptr, align 8
  %out_len.addr = alloca ptr, align 8
  %i = alloca i32, align 4
  %buf = alloca [64 x i8], align 16
  store ptr %ctx, ptr %ctx.addr, align 8
  store ptr %out, ptr %out.addr, align 8
  store ptr %out_len, ptr %out_len.addr, align 8
  %0 = load ptr, ptr %ctx.addr, align 8
  %md_ctx = getelementptr inbounds %struct.hmac_ctx_st, ptr %0, i32 0, i32 1
  %arraydecay = getelementptr inbounds [64 x i8], ptr %buf, i64 0, i64 0
  %call = call i32 @EVP_DigestFinal_ex(ptr noundef %md_ctx, ptr noundef %arraydecay, ptr noundef %i)
  %tobool = icmp ne i32 %call, 0
  br i1 %tobool, label %lor.lhs.false, label %if.then

lor.lhs.false:                                    ; preds = %entry
  %1 = load ptr, ptr %ctx.addr, align 8
  %md_ctx1 = getelementptr inbounds %struct.hmac_ctx_st, ptr %1, i32 0, i32 1
  %2 = load ptr, ptr %ctx.addr, align 8
  %o_ctx = getelementptr inbounds %struct.hmac_ctx_st, ptr %2, i32 0, i32 3
  %call2 = call i32 @EVP_MD_CTX_copy_ex(ptr noundef %md_ctx1, ptr noundef %o_ctx)
  %tobool3 = icmp ne i32 %call2, 0
  br i1 %tobool3, label %lor.lhs.false4, label %if.then

lor.lhs.false4:                                   ; preds = %lor.lhs.false
  %3 = load ptr, ptr %ctx.addr, align 8
  %md_ctx5 = getelementptr inbounds %struct.hmac_ctx_st, ptr %3, i32 0, i32 1
  %arraydecay6 = getelementptr inbounds [64 x i8], ptr %buf, i64 0, i64 0
  %4 = load i32, ptr %i, align 4
  %conv = zext i32 %4 to i64
  %call7 = call i32 @EVP_DigestUpdate(ptr noundef %md_ctx5, ptr noundef %arraydecay6, i64 noundef %conv)
  %tobool8 = icmp ne i32 %call7, 0
  br i1 %tobool8, label %lor.lhs.false9, label %if.then

lor.lhs.false9:                                   ; preds = %lor.lhs.false4
  %5 = load ptr, ptr %ctx.addr, align 8
  %md_ctx10 = getelementptr inbounds %struct.hmac_ctx_st, ptr %5, i32 0, i32 1
  %6 = load ptr, ptr %out.addr, align 8
  %7 = load ptr, ptr %out_len.addr, align 8
  %call11 = call i32 @EVP_DigestFinal_ex(ptr noundef %md_ctx10, ptr noundef %6, ptr noundef %7)
  %tobool12 = icmp ne i32 %call11, 0
  br i1 %tobool12, label %if.end, label %if.then

if.then:                                          ; preds = %lor.lhs.false9, %lor.lhs.false4, %lor.lhs.false, %entry
  %8 = load ptr, ptr %out_len.addr, align 8
  store i32 0, ptr %8, align 4
  store i32 0, ptr %retval, align 4
  br label %return

if.end:                                           ; preds = %lor.lhs.false9
  store i32 1, ptr %retval, align 4
  br label %return

return:                                           ; preds = %if.end, %if.then
  %9 = load i32, ptr %retval, align 4
  ret i32 %9
}

; Function Attrs: nounwind uwtable
define hidden i32 @HMAC_Update(ptr noundef %ctx, ptr noundef %data, i64 noundef %data_len) #0 {
entry:
  %ctx.addr = alloca ptr, align 8
  %data.addr = alloca ptr, align 8
  %data_len.addr = alloca i64, align 8
  store ptr %ctx, ptr %ctx.addr, align 8
  store ptr %data, ptr %data.addr, align 8
  store i64 %data_len, ptr %data_len.addr, align 8
  %0 = load ptr, ptr %ctx.addr, align 8
  %md_ctx = getelementptr inbounds %struct.hmac_ctx_st, ptr %0, i32 0, i32 1
  %1 = load ptr, ptr %data.addr, align 8
  %2 = load i64, ptr %data_len.addr, align 8
  %call = call i32 @EVP_DigestUpdate(ptr noundef %md_ctx, ptr noundef %1, i64 noundef %2)
  ret i32 %call
}

; Function Attrs: nounwind uwtable
define hidden void @HMAC_CTX_init(ptr noundef %ctx) #0 {
entry:
  %ctx.addr = alloca ptr, align 8
  store ptr %ctx, ptr %ctx.addr, align 8
  %0 = load ptr, ptr %ctx.addr, align 8
  %md = getelementptr inbounds %struct.hmac_ctx_st, ptr %0, i32 0, i32 0
  store ptr null, ptr %md, align 8
  %1 = load ptr, ptr %ctx.addr, align 8
  %i_ctx = getelementptr inbounds %struct.hmac_ctx_st, ptr %1, i32 0, i32 2
  call void @EVP_MD_CTX_init(ptr noundef %i_ctx)
  %2 = load ptr, ptr %ctx.addr, align 8
  %o_ctx = getelementptr inbounds %struct.hmac_ctx_st, ptr %2, i32 0, i32 3
  call void @EVP_MD_CTX_init(ptr noundef %o_ctx)
  %3 = load ptr, ptr %ctx.addr, align 8
  %md_ctx = getelementptr inbounds %struct.hmac_ctx_st, ptr %3, i32 0, i32 1
  call void @EVP_MD_CTX_init(ptr noundef %md_ctx)
  ret void
}

; Function Attrs: nounwind uwtable
define hidden ptr @HMAC(ptr noundef %evp_md, ptr noundef %key, i64 noundef %key_len, ptr noundef %data, i64 noundef %data_len, ptr noundef %out, ptr noundef %out_len) #0 {
entry:
  %evp_md.addr = alloca ptr, align 8
  %key.addr = alloca ptr, align 8
  %key_len.addr = alloca i64, align 8
  %data.addr = alloca ptr, align 8
  %data_len.addr = alloca i64, align 8
  %out.addr = alloca ptr, align 8
  %out_len.addr = alloca ptr, align 8
  %ctx = alloca %struct.hmac_ctx_st, align 8
  store ptr %evp_md, ptr %evp_md.addr, align 8
  store ptr %key, ptr %key.addr, align 8
  store i64 %key_len, ptr %key_len.addr, align 8
  store ptr %data, ptr %data.addr, align 8
  store i64 %data_len, ptr %data_len.addr, align 8
  store ptr %out, ptr %out.addr, align 8
  store ptr %out_len, ptr %out_len.addr, align 8
  %0 = load ptr, ptr %out.addr, align 8
  %cmp = icmp eq ptr %0, null
  br i1 %cmp, label %if.then, label %if.end

if.then:                                          ; preds = %entry
  store ptr @HMAC.static_out_buffer, ptr %out.addr, align 8
  br label %if.end

if.end:                                           ; preds = %if.then, %entry
  call void @HMAC_CTX_init(ptr noundef %ctx)
  %1 = load ptr, ptr %key.addr, align 8
  %2 = load i64, ptr %key_len.addr, align 8
  %3 = load ptr, ptr %evp_md.addr, align 8
  %call = call i32 @HMAC_Init_ex(ptr noundef %ctx, ptr noundef %1, i64 noundef %2, ptr noundef %3, ptr noundef null)
  %tobool = icmp ne i32 %call, 0
  br i1 %tobool, label %lor.lhs.false, label %if.then6

lor.lhs.false:                                    ; preds = %if.end
  %4 = load ptr, ptr %data.addr, align 8
  %5 = load i64, ptr %data_len.addr, align 8
  %call1 = call i32 @HMAC_Update(ptr noundef %ctx, ptr noundef %4, i64 noundef %5)
  %tobool2 = icmp ne i32 %call1, 0
  br i1 %tobool2, label %lor.lhs.false3, label %if.then6

lor.lhs.false3:                                   ; preds = %lor.lhs.false
  %6 = load ptr, ptr %out.addr, align 8
  %7 = load ptr, ptr %out_len.addr, align 8
  %call4 = call i32 @HMAC_Final(ptr noundef %ctx, ptr noundef %6, ptr noundef %7)
  %tobool5 = icmp ne i32 %call4, 0
  br i1 %tobool5, label %if.end7, label %if.then6

if.then6:                                         ; preds = %lor.lhs.false3, %lor.lhs.false, %if.end
  store ptr null, ptr %out.addr, align 8
  br label %if.end7

if.end7:                                          ; preds = %if.then6, %lor.lhs.false3
  call void @HMAC_CTX_cleanup(ptr noundef %ctx)
  %8 = load ptr, ptr %out.addr, align 8
  ret ptr %8
}