; Function Attrs: nounwind uwtable
define hidden noundef ptr @HMAC(ptr noundef %evp_md, ptr noundef %key, i64 noundef %key_len, ptr noundef %data, i64 noundef %data_len, ptr noundef %out, ptr noundef %out_len) local_unnamed_addr #0 {
entry:
  %i.i = alloca i32, align 4
  %buf.i = alloca [64 x i8], align 16
  %ctx = alloca %struct.hmac_ctx_st, align 8
  %cmp = icmp eq ptr %out, null
  %spec.store.select = select i1 %cmp, ptr @HMAC.static_out_buffer, ptr %out
  store ptr null, ptr %ctx, align 8
  %i_ctx.i = getelementptr inbounds nuw i8, ptr %ctx, i64 40
  call void @EVP_MD_CTX_init(ptr noundef nonnull %i_ctx.i) #5
  %o_ctx.i = getelementptr inbounds nuw i8, ptr %ctx, i64 72
  call void @EVP_MD_CTX_init(ptr noundef nonnull %o_ctx.i) #5
  %md_ctx.i = getelementptr inbounds nuw i8, ptr %ctx, i64 8
  call void @EVP_MD_CTX_init(ptr noundef nonnull %md_ctx.i) #5
  %call = call i32 @HMAC_Init_ex(ptr noundef nonnull %ctx, ptr noundef %key, i64 noundef %key_len, ptr noundef %evp_md, ptr noundef null)
  %tobool.not = icmp eq i32 %call, 0
  br i1 %tobool.not, label %if.end7, label %lor.lhs.false

lor.lhs.false:                                    ; preds = %entry
  %call.i = call i32 @EVP_DigestUpdate(ptr noundef nonnull %md_ctx.i, ptr noundef %data, i64 noundef %data_len) #5
  %tobool2.not = icmp eq i32 %call.i, 0
  br i1 %tobool2.not, label %if.end7, label %lor.lhs.false3

lor.lhs.false3:                                   ; preds = %lor.lhs.false
  call void @llvm.lifetime.start.p0(i64 4, ptr nonnull %i.i)
  call void @llvm.lifetime.start.p0(i64 64, ptr nonnull %buf.i)
  %call.i5 = call i32 @EVP_DigestFinal_ex(ptr noundef nonnull %md_ctx.i, ptr noundef nonnull %buf.i, ptr noundef nonnull %i.i) #5
  %tobool.not.i = icmp eq i32 %call.i5, 0
  br i1 %tobool.not.i, label %HMAC_Final.exit.thread, label %lor.lhs.false.i

lor.lhs.false.i:                                  ; preds = %lor.lhs.false3
  %call2.i = call i32 @EVP_MD_CTX_copy_ex(ptr noundef nonnull %md_ctx.i, ptr noundef nonnull %o_ctx.i) #5
  %tobool3.not.i = icmp eq i32 %call2.i, 0
  br i1 %tobool3.not.i, label %HMAC_Final.exit.thread, label %lor.lhs.false4.i

lor.lhs.false4.i:                                 ; preds = %lor.lhs.false.i
  %0 = load i32, ptr %i.i, align 4
  %conv.i = zext i32 %0 to i64
  %call7.i = call i32 @EVP_DigestUpdate(ptr noundef nonnull %md_ctx.i, ptr noundef nonnull %buf.i, i64 noundef %conv.i) #5
  %tobool8.not.i = icmp eq i32 %call7.i, 0
  br i1 %tobool8.not.i, label %HMAC_Final.exit.thread, label %lor.lhs.false9.i

lor.lhs.false9.i:                                 ; preds = %lor.lhs.false4.i
  %call11.i = call i32 @EVP_DigestFinal_ex(ptr noundef nonnull %md_ctx.i, ptr noundef nonnull %spec.store.select, ptr noundef %out_len) #5
  %tobool12.not.i = icmp eq i32 %call11.i, 0
  br i1 %tobool12.not.i, label %HMAC_Final.exit.thread, label %if.end7.sink.split

HMAC_Final.exit.thread:                           ; preds = %lor.lhs.false3, %lor.lhs.false.i, %lor.lhs.false4.i, %lor.lhs.false9.i
  store i32 0, ptr %out_len, align 4
  br label %if.end7.sink.split

if.end7.sink.split:                               ; preds = %lor.lhs.false9.i, %HMAC_Final.exit.thread
  %out.addr.0.ph = phi ptr [ null, %HMAC_Final.exit.thread ], [ %spec.store.select, %lor.lhs.false9.i ]
  call void @llvm.lifetime.end.p0(i64 4, ptr nonnull %i.i)
  call void @llvm.lifetime.end.p0(i64 64, ptr nonnull %buf.i)
  br label %if.end7

if.end7:                                          ; preds = %if.end7.sink.split, %entry, %lor.lhs.false
  %out.addr.0 = phi ptr [ null, %lor.lhs.false ], [ null, %entry ], [ %out.addr.0.ph, %if.end7.sink.split ]
  %call.i8 = call i32 @EVP_MD_CTX_cleanup(ptr noundef nonnull %i_ctx.i) #5
  %call1.i = call i32 @EVP_MD_CTX_cleanup(ptr noundef nonnull %o_ctx.i) #5
  %call2.i11 = call i32 @EVP_MD_CTX_cleanup(ptr noundef nonnull %md_ctx.i) #5
  call void @OPENSSL_cleanse(ptr noundef nonnull %ctx, i64 noundef 104) #5
  ret ptr %out.addr.0
}